target datalayout = "e-m:e-p270:32:32-p271:32:32-p272:64:64-i64:64-i128:128-f80:128-n8:16:32:64-S128"
target triple = "x86_64-pc-linux-gnu"

%struct.png_color_8_struct = type { i8, i8, i8, i8, i8 }
%struct.png_color_16_struct = type { i8, i16, i16, i16, i16 }
%struct.png_colorspace = type { i32, %struct.png_xy, %struct.png_XYZ, i16, i16 }
%struct.png_xy = type { i32, i32, i32, i32, i32, i32, i32, i32 }
%struct.png_XYZ = type { i32, i32, i32, i32, i32, i32, i32, i32, i32 }
%struct.png_info_def = type { i32, i32, i32, i64, ptr, i16, i16, i8, i8, i8, i8, i8, i8, i8, i8, [8 x i8], %struct.png_colorspace, ptr, ptr, i32, i32, i32, ptr, %struct.png_time_struct, %struct.png_color_8_struct, ptr, %struct.png_color_16_struct, %struct.png_color_16_struct, i32, i32, i8, i32, i32, i8, ptr, ptr, i32, i32, ptr, ptr, i8, i8, i32, ptr, i32, ptr, i32, i8, ptr, ptr, ptr }
%struct.png_time_struct = type { i16, i8, i8, i8, i8, i8 }

; Function Attrs: nounwind uwtable
define hidden i32 @png_get_gAMA_fixed(ptr noalias noundef %0, ptr noalias noundef %1, ptr noundef %2) #0 {
  %4 = alloca i32, align 4
  %5 = alloca ptr, align 8
  %6 = alloca ptr, align 8
  %7 = alloca ptr, align 8
  store ptr %0, ptr %5, align 8
  store ptr %1, ptr %6, align 8
  store ptr %2, ptr %7, align 8
  %8 = load ptr, ptr %5, align 8
  %9 = icmp ne ptr %8, null
  br i1 %9, label %10, label %30

10:                                               ; preds = %3
  %11 = load ptr, ptr %6, align 8
  %12 = icmp ne ptr %11, null
  br i1 %12, label %13, label %30

13:                                               ; preds = %10
  %14 = load ptr, ptr %6, align 8
  %15 = getelementptr inbounds %struct.png_info_def, ptr %14, i32 0, i32 16
  %16 = getelementptr inbounds %struct.png_colorspace, ptr %15, i32 0, i32 4
  %17 = load i16, ptr %16, align 2
  %18 = zext i16 %17 to i32
  %19 = and i32 %18, 1
  %20 = icmp ne i32 %19, 0
  br i1 %20, label %21, label %30

21:                                               ; preds = %13
  %22 = load ptr, ptr %7, align 8
  %23 = icmp ne ptr %22, null
  br i1 %23, label %24, label %30

24:                                               ; preds = %21
  %25 = load ptr, ptr %6, align 8
  %26 = getelementptr inbounds %struct.png_info_def, ptr %25, i32 0, i32 16
  %27 = getelementptr inbounds %struct.png_colorspace, ptr %26, i32 0, i32 0
  %28 = load i32, ptr %27, align 4
  %29 = load ptr, ptr %7, align 8
  store i32 %28, ptr %29, align 4
  store i32 1, ptr %4, align 4
  br label %31

30:                                               ; preds = %21, %13, %10, %3
  store i32 0, ptr %4, align 4
  br label %31

31:                                               ; preds = %30, %24
  %32 = load i32, ptr %4, align 4
  ret i32 %32
}